; Function Attrs: mustprogress uwtable
define noundef double @_ZN2cv4PSNRERKNS_11_InputArrayES2_d(ptr noundef nonnull align 8 dereferenceable(24) %0, ptr noundef nonnull align 8 dereferenceable(24) %1, double noundef %2) local_unnamed_addr #0 personality ptr @__gxx_personality_v0 {
  %4 = alloca %"class.cv::utils::trace::details::Region", align 8
  %5 = alloca %"class.std::__cxx11::basic_string", align 8
  %6 = alloca %"class.std::allocator", align 1
  call void @llvm.lifetime.start.p0(i64 16, ptr nonnull %4) #17
  call void @_ZN2cv5utils5trace7details6RegionC1ERKNS3_21LocationStaticStorageE(ptr noundef nonnull align 8 dereferenceable(12) %4, ptr noundef nonnull align 8 dereferenceable(32) @_ZZN2cv4PSNRERKNS_11_InputArrayES2_dE26__cv_trace_location_fn1220)
  %7 = invoke noundef i32 @_ZNK2cv11_InputArray4typeEi(ptr noundef nonnull align 8 dereferenceable(24) %0, i32 noundef -1)
          to label %8 unwind label %12

8:                                                ; preds = %3
  %9 = invoke noundef i32 @_ZNK2cv11_InputArray4typeEi(ptr noundef nonnull align 8 dereferenceable(24) %1, i32 noundef -1)
          to label %10 unwind label %12

10:                                               ; preds = %8
  %11 = icmp eq i32 %7, %9
  br i1 %11, label %27, label %14

12:                                               ; preds = %8, %3
  %13 = landingpad { ptr, i32 }
          cleanup
  br label %53

14:                                               ; preds = %10
  call void @llvm.lifetime.start.p0(i64 32, ptr nonnull %5) #17
  call void @llvm.lifetime.start.p0(i64 1, ptr nonnull %6) #17
  invoke void @_ZNSt7__cxx1112basic_stringIcSt11char_traitsIcESaIcEEC2EPKcRKS3_(ptr noundef nonnull align 8 dereferenceable(32) %5, ptr noundef nonnull @.str.21, ptr noundef nonnull align 1 dereferenceable(1) %6)
          to label %15 unwind label %17

15:                                               ; preds = %14
  invoke void @_ZN2cv5errorEiRKNSt7__cxx1112basic_stringIcSt11char_traitsIcESaIcEEEPKcS9_i(i32 noundef -215, ptr noundef nonnull align 8 dereferenceable(32) %5, ptr noundef nonnull @__func__._ZN2cv4PSNRERKNS_11_InputArrayES2_d, ptr noundef nonnull @.str.3, i32 noundef 1223) #19
          to label %16 unwind label %19

16:                                               ; preds = %15
  unreachable

17:                                               ; preds = %14
  %18 = landingpad { ptr, i32 }
          cleanup
  br label %_ZNSt7__cxx1112basic_stringIcSt11char_traitsIcESaIcEED2Ev.exit

19:                                               ; preds = %15
  %20 = landingpad { ptr, i32 }
          cleanup
  %21 = load ptr, ptr %5, align 8, !tbaa !88
  %22 = getelementptr inbounds nuw i8, ptr %5, i64 16
  %23 = icmp eq ptr %21, %22
  br i1 %23, label %_ZNKSt7__cxx1112basic_stringIcSt11char_traitsIcESaIcEE11_M_is_localEv.exit.thread.i.i, label %_ZNKSt7__cxx1112basic_stringIcSt11char_traitsIcESaIcEE11_M_is_localEv.exit.i.i

_ZNKSt7__cxx1112basic_stringIcSt11char_traitsIcESaIcEE11_M_is_localEv.exit.thread.i.i: ; preds = %19
  %24 = getelementptr inbounds nuw i8, ptr %5, i64 8
  %25 = load i64, ptr %24, align 8, !tbaa !93
  %26 = icmp ult i64 %25, 16
  call void @llvm.assume(i1 %26)
  br label %_ZNSt7__cxx1112basic_stringIcSt11char_traitsIcESaIcEED2Ev.exit

_ZNKSt7__cxx1112basic_stringIcSt11char_traitsIcESaIcEE11_M_is_localEv.exit.i.i: ; preds = %19
  call void @_ZdlPv(ptr noundef %21) #20
  br label %_ZNSt7__cxx1112basic_stringIcSt11char_traitsIcESaIcEED2Ev.exit

_ZNSt7__cxx1112basic_stringIcSt11char_traitsIcESaIcEED2Ev.exit: ; preds = %_ZNKSt7__cxx1112basic_stringIcSt11char_traitsIcESaIcEE11_M_is_localEv.exit.i.i, %_ZNKSt7__cxx1112basic_stringIcSt11char_traitsIcESaIcEE11_M_is_localEv.exit.thread.i.i, %17
  %.pn = phi { ptr, i32 } [ %18, %17 ], [ %20, %_ZNKSt7__cxx1112basic_stringIcSt11char_traitsIcESaIcEE11_M_is_localEv.exit.thread.i.i ], [ %20, %_ZNKSt7__cxx1112basic_stringIcSt11char_traitsIcESaIcEE11_M_is_localEv.exit.i.i ]
  call void @llvm.lifetime.end.p0(i64 1, ptr nonnull %6) #17
  call void @llvm.lifetime.end.p0(i64 32, ptr nonnull %5) #17
  br label %53

27:                                               ; preds = %10
  %28 = invoke noundef nonnull align 8 dereferenceable(24) ptr @_ZN2cv7noArrayEv()
          to label %29 unwind label %51

29:                                               ; preds = %27
  %30 = invoke noundef double @_ZN2cv4normERKNS_11_InputArrayES2_iS2_(ptr noundef nonnull align 8 dereferenceable(24) %0, ptr noundef nonnull align 8 dereferenceable(24) %1, i32 noundef 5, ptr noundef nonnull align 8 dereferenceable(24) %28)
          to label %31 unwind label %51

31:                                               ; preds = %29
  %32 = invoke noundef i64 @_ZNK2cv11_InputArray5totalEi(ptr noundef nonnull align 8 dereferenceable(24) %0, i32 noundef -1)
          to label %33 unwind label %51

33:                                               ; preds = %31
  %34 = invoke noundef i32 @_ZNK2cv11_InputArray8channelsEi(ptr noundef nonnull align 8 dereferenceable(24) %0, i32 noundef -1)
          to label %35 unwind label %51

35:                                               ; preds = %33
  %36 = sext i32 %34 to i64
  %37 = mul i64 %32, %36
  %38 = uitofp i64 %37 to double
  %39 = fdiv double %30, %38
  %40 = call double @sqrt(double noundef %39) #17, !tbaa !11
  %41 = fadd double %40, 0x3CB0000000000000
  %42 = fdiv double %2, %41
  %43 = call double @log10(double noundef %42) #17, !tbaa !11
  %44 = getelementptr inbounds nuw i8, ptr %4, i64 8
  %45 = load i32, ptr %44, align 8, !tbaa !7
  %.not.i = icmp eq i32 %45, 0
  br i1 %.not.i, label %_ZN2cv5utils5trace7details6RegionD2Ev.exit, label %46

46:                                               ; preds = %35
  invoke void @_ZN2cv5utils5trace7details6Region7destroyEv(ptr noundef nonnull align 8 dereferenceable(12) %4)
          to label %_ZN2cv5utils5trace7details6RegionD2Ev.exit unwind label %47

47:                                               ; preds = %46
  %48 = landingpad { ptr, i32 }
          catch ptr null
  %49 = extractvalue { ptr, i32 } %48, 0
  call void @__clang_call_terminate(ptr %49) #18
  unreachable

_ZN2cv5utils5trace7details6RegionD2Ev.exit:       ; preds = %35, %46
  %50 = fmul double %43, 2.000000e+01
  call void @llvm.lifetime.end.p0(i64 16, ptr nonnull %4) #17
  ret double %50

51:                                               ; preds = %33, %31, %29, %27
  %52 = landingpad { ptr, i32 }
          cleanup
  br label %53

53:                                               ; preds = %51, %_ZNSt7__cxx1112basic_stringIcSt11char_traitsIcESaIcEED2Ev.exit, %12
  %.pn12 = phi { ptr, i32 } [ %52, %51 ], [ %.pn, %_ZNSt7__cxx1112basic_stringIcSt11char_traitsIcESaIcEED2Ev.exit ], [ %13, %12 ]
  call void @_ZN2cv5utils5trace7details6RegionD2Ev(ptr noundef nonnull align 8 dereferenceable(12) %4) #17
  call void @llvm.lifetime.end.p0(i64 16, ptr nonnull %4) #17
  resume { ptr, i32 } %.pn12
}